; Function Attrs: nounwind uwtable
define internal zeroext i1 @ehooks_default_dalloc(ptr readnone captures(none) %0, ptr noundef %1, i64 noundef %2, i1 zeroext %3, i32 %4) #1 {
  %6 = tail call zeroext i1 @je_extent_in_dss(ptr noundef %1) #6
  br i1 %6, label %je_ehooks_default_dalloc_impl.exit, label %7

7:                                                ; preds = %5
  %8 = tail call zeroext i1 @je_extent_dalloc_mmap(ptr noundef %1, i64 noundef %2) #6
  br label %je_ehooks_default_dalloc_impl.exit

je_ehooks_default_dalloc_impl.exit:               ; preds = %5, %7
  %.0.i = phi i1 [ %8, %7 ], [ true, %5 ]
  ret i1 %.0.i
}